target datalayout = "e-m:e-p270:32:32-p271:32:32-p272:64:64-i64:64-i128:128-f80:128-n8:16:32:64-S128"
target triple = "x86_64-pc-linux-gnu"

%"struct.nanogui::Array" = type { [2 x i32] }
%"class.nanogui::Widget" = type <{ %"class.nanogui::Object.base", [4 x i8], ptr, %"class.nanogui::ref", %"class.nanogui::ref.0", %"struct.nanogui::Array", %"struct.nanogui::Array", %"struct.nanogui::Array", %"class.std::vector", i8, i8, i8, i8, [4 x i8], %"class.std::__cxx11::basic_string", i32, float, i32, [4 x i8] }>
%"class.nanogui::Object.base" = type <{ ptr, %"struct.std::atomic" }>
%"struct.std::atomic" = type { %"struct.std::__atomic_base" }
%"struct.std::__atomic_base" = type { i32 }
%"class.nanogui::ref" = type { ptr }
%"class.nanogui::ref.0" = type { ptr }
%"class.std::vector" = type { %"struct.std::_Vector_base" }
%"struct.std::_Vector_base" = type { %"struct.std::_Vector_base<nanogui::Widget *, std::allocator<nanogui::Widget *>>::_Vector_impl" }
%"struct.std::_Vector_base<nanogui::Widget *, std::allocator<nanogui::Widget *>>::_Vector_impl" = type { %"struct.std::_Vector_base<nanogui::Widget *, std::allocator<nanogui::Widget *>>::_Vector_impl_data" }
%"struct.std::_Vector_base<nanogui::Widget *, std::allocator<nanogui::Widget *>>::_Vector_impl_data" = type { ptr, ptr, ptr }
%"class.std::__cxx11::basic_string" = type { %"struct.std::__cxx11::basic_string<char>::_Alloc_hider", i64, %union.anon }
%"struct.std::__cxx11::basic_string<char>::_Alloc_hider" = type { ptr }
%union.anon = type { i64, [8 x i8] }
%"class.nanogui::Theme" = type { %"class.nanogui::Object.base", i32, i32, i32, i32, float, i32, i32, i32, i32, i32, i32, i32, float, i32, i32, i32, i32, i32, i32, %"class.nanogui::Color", %"class.nanogui::Color", %"class.nanogui::Color", %"class.nanogui::Color", %"class.nanogui::Color", %"class.nanogui::Color", %"class.nanogui::Color", %"class.nanogui::Color", %"class.nanogui::Color", %"class.nanogui::Color", %"class.nanogui::Color", %"class.nanogui::Color", %"class.nanogui::Color", %"class.nanogui::Color", %"class.nanogui::Color", %"class.nanogui::Color", %"class.nanogui::Color", %"class.nanogui::Color", %"class.nanogui::Color", %"class.nanogui::Color", %"class.nanogui::Color", %"class.nanogui::Color", %"class.nanogui::Color", %"class.nanogui::Color", %"class.nanogui::Color", i32, i32, i32, i32, i32, i32, i32, i32, i32, i32 }
%"class.nanogui::Color" = type { %"struct.nanogui::Array.4" }
%"struct.nanogui::Array.4" = type { [4 x float] }
%"class.nanogui::PopupButton" = type <{ %"class.nanogui::Button", ptr, i32, [4 x i8] }>
%"class.nanogui::Button" = type { %"class.nanogui::Widget.base", %"class.std::__cxx11::basic_string", i32, i32, i8, i32, %"class.nanogui::Color", %"class.nanogui::Color", %"class.std::function", %"class.std::function.5", %"class.std::vector.7" }
%"class.nanogui::Widget.base" = type <{ %"class.nanogui::Object.base", [4 x i8], ptr, %"class.nanogui::ref", %"class.nanogui::ref.0", %"struct.nanogui::Array", %"struct.nanogui::Array", %"struct.nanogui::Array", %"class.std::vector", i8, i8, i8, i8, [4 x i8], %"class.std::__cxx11::basic_string", i32, float, i32 }>
%"class.std::function" = type { %"class.std::_Function_base", ptr }
%"class.std::_Function_base" = type { %"union.std::_Any_data", ptr }
%"union.std::_Any_data" = type { %"union.std::_Nocopy_types" }
%"union.std::_Nocopy_types" = type { { i64, i64 } }
%"class.std::function.5" = type { %"class.std::_Function_base", ptr }
%"class.std::vector.7" = type { %"struct.std::_Vector_base.8" }
%"struct.std::_Vector_base.8" = type { %"struct.std::_Vector_base<nanogui::Button *, std::allocator<nanogui::Button *>>::_Vector_impl" }
%"struct.std::_Vector_base<nanogui::Button *, std::allocator<nanogui::Button *>>::_Vector_impl" = type { %"struct.std::_Vector_base<nanogui::Button *, std::allocator<nanogui::Button *>>::_Vector_impl_data" }
%"struct.std::_Vector_base<nanogui::Button *, std::allocator<nanogui::Button *>>::_Vector_impl_data" = type { ptr, ptr, ptr }

; Function Attrs: mustprogress nounwind uwtable
define linkonce_odr hidden void @_ZN7nanogui6Widget11set_visibleEb(ptr noundef nonnull align 8 dereferenceable(140) %0, i1 noundef zeroext %1) #2 comdat align 2 {
  %3 = alloca ptr, align 8
  %4 = alloca i8, align 1
  store ptr %0, ptr %3, align 8
  %5 = zext i1 %1 to i8
  store i8 %5, ptr %4, align 1
  %6 = load ptr, ptr %3, align 8
  %7 = load i8, ptr %4, align 1
  %8 = trunc i8 %7 to i1
  %9 = getelementptr inbounds %"class.nanogui::Widget", ptr %6, i32 0, i32 9
  %10 = zext i1 %8 to i8
  store i8 %10, ptr %9, align 8
  ret void
}

; Function Attrs: mustprogress nounwind uwtable
define linkonce_odr hidden void @_ZN7nanogui6Widget8set_sizeERKNS_5ArrayIiLm2EEE(ptr noundef nonnull align 8 dereferenceable(140) %0, ptr noundef nonnull align 4 dereferenceable(8) %1) #2 comdat align 2 {
  %3 = alloca ptr, align 8
  %4 = alloca ptr, align 8
  store ptr %0, ptr %3, align 8
  store ptr %1, ptr %4, align 8
  %5 = load ptr, ptr %3, align 8
  %6 = load ptr, ptr %4, align 8
  %7 = getelementptr inbounds %"class.nanogui::Widget", ptr %5, i32 0, i32 6
  call void @llvm.memcpy.p0.p0.i64(ptr align 8 %7, ptr align 4 %6, i64 8, i1 false)
  ret void
}

; Function Attrs: mustprogress nounwind uwtable
define linkonce_odr hidden void @_ZN7nanogui5ArrayIiLm2EEC2ILm2ETnNSt9enable_ifIXeqT_Li2EEiE4typeELi0EEEii(ptr noundef nonnull align 4 dereferenceable(8) %0, i32 noundef %1, i32 noundef %2) unnamed_addr #2 comdat align 2 {
  %4 = alloca ptr, align 8
  %5 = alloca i32, align 4
  %6 = alloca i32, align 4
  store ptr %0, ptr %4, align 8
  store i32 %1, ptr %5, align 4
  store i32 %2, ptr %6, align 4
  %7 = load ptr, ptr %4, align 8
  %8 = load i32, ptr %5, align 4
  %9 = getelementptr inbounds %"struct.nanogui::Array", ptr %7, i32 0, i32 0
  %10 = getelementptr inbounds [2 x i32], ptr %9, i64 0, i64 0
  store i32 %8, ptr %10, align 4
  %11 = load i32, ptr %6, align 4
  %12 = getelementptr inbounds %"struct.nanogui::Array", ptr %7, i32 0, i32 0
  %13 = getelementptr inbounds [2 x i32], ptr %12, i64 0, i64 1
  store i32 %11, ptr %13, align 4
  ret void
}

; Function Attrs: mustprogress nounwind uwtable
define linkonce_odr hidden void @_ZN7nanogui6Button9set_flagsEi(ptr noundef nonnull align 8 dereferenceable(312) %0, i32 noundef %1) #2 comdat align 2 {
  %3 = alloca ptr, align 8
  %4 = alloca i32, align 4
  store ptr %0, ptr %3, align 8
  store i32 %1, ptr %4, align 4
  %5 = load ptr, ptr %3, align 8
  %6 = load i32, ptr %4, align 4
  %7 = getelementptr inbounds %"class.nanogui::Button", ptr %5, i32 0, i32 5
  store i32 %6, ptr %7, align 4
  ret void
}

; Function Attrs: mustprogress nounwind uwtable
define linkonce_odr hidden noundef ptr @_ZN7nanogui3refINS_5ThemeEEptEv(ptr noundef nonnull align 8 dereferenceable(8) %0) #2 comdat align 2 {
  %2 = alloca ptr, align 8
  store ptr %0, ptr %2, align 8
  %3 = load ptr, ptr %2, align 8
  %4 = getelementptr inbounds %"class.nanogui::ref", ptr %3, i32 0, i32 0
  %5 = load ptr, ptr %4, align 8
  ret ptr %5
}

; Function Attrs: mustprogress uwtable
define hidden void @_ZN7nanogui11PopupButtonC2EPNS_6WidgetERKNSt7__cxx1112basic_stringIcSt11char_traitsIcESaIcEEEi(ptr noundef nonnull align 8 dereferenceable(324) %0, ptr noundef %1, ptr noundef nonnull align 8 dereferenceable(32) %2, i32 noundef %3) unnamed_addr #0 align 2 personality ptr @__gxx_personality_v0 {
  %5 = alloca ptr, align 8
  %6 = alloca ptr, align 8
  %7 = alloca ptr, align 8
  %8 = alloca i32, align 4
  %9 = alloca ptr, align 8
  %10 = alloca i32, align 4
  %11 = alloca %"struct.nanogui::Array", align 4
  store ptr %0, ptr %5, align 8
  store ptr %1, ptr %6, align 8
  store ptr %2, ptr %7, align 8
  store i32 %3, ptr %8, align 4
  %12 = load ptr, ptr %5, align 8
  %13 = load ptr, ptr %6, align 8
  %14 = load ptr, ptr %7, align 8
  %15 = load i32, ptr %8, align 4
  call void @_ZN7nanogui6ButtonC2EPNS_6WidgetERKNSt7__cxx1112basic_stringIcSt11char_traitsIcESaIcEEEi(ptr noundef nonnull align 8 dereferenceable(312) %12, ptr noundef %13, ptr noundef nonnull align 8 dereferenceable(32) %14, i32 noundef %15)
  store ptr getelementptr inbounds ({ [17 x ptr] }, ptr @_ZTVN7nanogui11PopupButtonE, i32 0, i32 0, i32 2), ptr %12, align 8
  %16 = getelementptr inbounds %"class.nanogui::Widget", ptr %12, i32 0, i32 3
  %17 = invoke noundef ptr @_ZN7nanogui3refINS_5ThemeEEptEv(ptr noundef nonnull align 8 dereferenceable(8) %16)
          to label %18 unwind label %39

18:                                               ; preds = %4
  %19 = getelementptr inbounds %"class.nanogui::Theme", ptr %17, i32 0, i32 51
  %20 = load i32, ptr %19, align 8
  %21 = getelementptr inbounds %"class.nanogui::PopupButton", ptr %12, i32 0, i32 2
  store i32 %20, ptr %21, align 8
  invoke void @_ZN7nanogui6Button9set_flagsEi(ptr noundef nonnull align 8 dereferenceable(312) %12, i32 noundef 12)
          to label %22 unwind label %39

22:                                               ; preds = %18
  %23 = invoke noalias noundef nonnull ptr @_Znwm(i64 noundef 224) #10
          to label %24 unwind label %39

24:                                               ; preds = %22
  %25 = invoke noundef ptr @_ZN7nanogui6Widget6screenEv(ptr noundef nonnull align 8 dereferenceable(140) %12)
          to label %26 unwind label %43

26:                                               ; preds = %24
  %27 = invoke noundef ptr @_ZN7nanogui6Widget6windowEv(ptr noundef nonnull align 8 dereferenceable(140) %12)
          to label %28 unwind label %43

28:                                               ; preds = %26
  invoke void @_ZN7nanogui5PopupC1EPNS_6WidgetEPNS_6WindowE(ptr noundef nonnull align 8 dereferenceable(220) %23, ptr noundef %25, ptr noundef %27)
          to label %29 unwind label %43

29:                                               ; preds = %28
  %30 = getelementptr inbounds %"class.nanogui::PopupButton", ptr %12, i32 0, i32 1
  store ptr %23, ptr %30, align 8
  %31 = getelementptr inbounds %"class.nanogui::PopupButton", ptr %12, i32 0, i32 1
  %32 = load ptr, ptr %31, align 8
  invoke void @_ZN7nanogui5ArrayIiLm2EEC2ILm2ETnNSt9enable_ifIXeqT_Li2EEiE4typeELi0EEEii(ptr noundef nonnull align 4 dereferenceable(8) %11, i32 noundef 320, i32 noundef 250)
          to label %33 unwind label %39

33:                                               ; preds = %29
  invoke void @_ZN7nanogui6Widget8set_sizeERKNS_5ArrayIiLm2EEE(ptr noundef nonnull align 8 dereferenceable(140) %32, ptr noundef nonnull align 4 dereferenceable(8) %11)
          to label %34 unwind label %39

34:                                               ; preds = %33
  %35 = getelementptr inbounds %"class.nanogui::PopupButton", ptr %12, i32 0, i32 1
  %36 = load ptr, ptr %35, align 8
  invoke void @_ZN7nanogui6Widget11set_visibleEb(ptr noundef nonnull align 8 dereferenceable(140) %36, i1 noundef zeroext false)
          to label %37 unwind label %39

37:                                               ; preds = %34
  %38 = getelementptr inbounds %"class.nanogui::Widget", ptr %12, i32 0, i32 16
  store float 0x3FE99999A0000000, ptr %38, align 4
  ret void

39:                                               ; preds = %34, %33, %29, %22, %18, %4
  %40 = landingpad { ptr, i32 }
          cleanup
  %41 = extractvalue { ptr, i32 } %40, 0
  store ptr %41, ptr %9, align 8
  %42 = extractvalue { ptr, i32 } %40, 1
  store i32 %42, ptr %10, align 4
  br label %47

43:                                               ; preds = %28, %26, %24
  %44 = landingpad { ptr, i32 }
          cleanup
  %45 = extractvalue { ptr, i32 } %44, 0
  store ptr %45, ptr %9, align 8
  %46 = extractvalue { ptr, i32 } %44, 1
  store i32 %46, ptr %10, align 4
  call void @_ZdlPv(ptr noundef %23) #11
  br label %47

47:                                               ; preds = %43, %39
  call void @_ZN7nanogui6ButtonD2Ev(ptr noundef nonnull align 8 dereferenceable(312) %12) #12
  br label %48

48:                                               ; preds = %47
  %49 = load ptr, ptr %9, align 8
  %50 = load i32, ptr %10, align 4
  %51 = insertvalue { ptr, i32 } poison, ptr %49, 0
  %52 = insertvalue { ptr, i32 } %51, i32 %50, 1
  resume { ptr, i32 } %52
}