; Function Attrs: mustprogress uwtable
define hidden void @_ZN7nanogui11PopupButtonC2EPNS_6WidgetERKNSt7__cxx1112basic_stringIcSt11char_traitsIcESaIcEEEi(ptr noundef nonnull align 8 dereferenceable(324) %0, ptr noundef %1, ptr noundef nonnull align 8 dereferenceable(32) %2, i32 noundef %3) unnamed_addr #0 align 2 personality ptr @__gxx_personality_v0 {
  tail call void @_ZN7nanogui6ButtonC2EPNS_6WidgetERKNSt7__cxx1112basic_stringIcSt11char_traitsIcESaIcEEEi(ptr noundef nonnull align 8 dereferenceable(312) %0, ptr noundef %1, ptr noundef nonnull align 8 dereferenceable(32) %2, i32 noundef %3)
  store ptr getelementptr inbounds ({ [17 x ptr] }, ptr @_ZTVN7nanogui11PopupButtonE, i64 0, i32 0, i64 2), ptr %0, align 8
  %5 = getelementptr inbounds i8, ptr %0, i64 24
  %6 = load ptr, ptr %5, align 8
  %7 = getelementptr inbounds i8, ptr %6, i64 512
  %8 = load i32, ptr %7, align 8
  %9 = getelementptr inbounds i8, ptr %0, i64 320
  store i32 %8, ptr %9, align 8
  %10 = getelementptr inbounds i8, ptr %0, i64 188
  store i32 12, ptr %10, align 4
  %11 = invoke noalias noundef nonnull dereferenceable(224) ptr @_Znwm(i64 noundef 224) #10
          to label %12 unwind label %22

12:                                               ; preds = %4
  %13 = invoke noundef ptr @_ZN7nanogui6Widget6screenEv(ptr noundef nonnull align 8 dereferenceable(140) %0)
          to label %14 unwind label %24

14:                                               ; preds = %12
  %15 = invoke noundef ptr @_ZN7nanogui6Widget6windowEv(ptr noundef nonnull align 8 dereferenceable(140) %0)
          to label %16 unwind label %24

16:                                               ; preds = %14
  invoke void @_ZN7nanogui5PopupC1EPNS_6WidgetEPNS_6WindowE(ptr noundef nonnull align 8 dereferenceable(220) %11, ptr noundef %13, ptr noundef %15)
          to label %17 unwind label %24

17:                                               ; preds = %16
  %18 = getelementptr inbounds i8, ptr %0, i64 312
  store ptr %11, ptr %18, align 8
  %19 = getelementptr inbounds i8, ptr %11, i64 48
  store i64 1073741824320, ptr %19, align 8
  %20 = getelementptr inbounds i8, ptr %11, i64 88
  store i8 0, ptr %20, align 8
  %21 = getelementptr inbounds i8, ptr %0, i64 132
  store float 0x3FE99999A0000000, ptr %21, align 4
  ret void

22:                                               ; preds = %4
  %23 = landingpad { ptr, i32 }
          cleanup
  br label %26

24:                                               ; preds = %16, %14, %12
  %25 = landingpad { ptr, i32 }
          cleanup
  tail call void @_ZdlPv(ptr noundef nonnull %11) #11
  br label %26

26:                                               ; preds = %24, %22
  %.pn = phi { ptr, i32 } [ %25, %24 ], [ %23, %22 ]
  tail call void @_ZN7nanogui6ButtonD2Ev(ptr noundef nonnull align 8 dereferenceable(312) %0) #12
  resume { ptr, i32 } %.pn
}